target datalayout = "e-m:e-p270:32:32-p271:32:32-p272:64:64-i64:64-i128:128-f80:128-n8:16:32:64-S128"
target triple = "x86_64-pc-linux-gnu"

%struct._frame_data = type <{ i32, i32, i32, i32, i32, [4 x i8], i64, ptr, ptr, ptr, i8, i16, [5 x i8], %struct.nstime_t, %struct.nstime_t, i32, i32 }>
%struct.nstime_t = type { i64, i32 }

; Function Attrs: null_pointer_is_valid sspstrong uwtable
define hidden void @frame_delta_abs_time(ptr noundef %0, ptr noundef %1, i32 noundef %2, ptr noundef %3) #0 {
  %5 = alloca ptr, align 8
  %6 = alloca ptr, align 8
  %7 = alloca i32, align 4
  %8 = alloca ptr, align 8
  %9 = alloca ptr, align 8
  store ptr %0, ptr %5, align 8
  store ptr %1, ptr %6, align 8
  store i32 %2, ptr %7, align 4
  store ptr %3, ptr %8, align 8
  call void @llvm.lifetime.start.p0(i64 8, ptr %9) #5
  %10 = load i32, ptr %7, align 4
  %11 = icmp ne i32 %10, 0
  br i1 %11, label %12, label %16

12:                                               ; preds = %4
  %13 = load ptr, ptr %5, align 8
  %14 = load i32, ptr %7, align 4
  %15 = call ptr @epan_get_frame_ts(ptr noundef %13, i32 noundef %14)
  br label %17

16:                                               ; preds = %4
  br label %17

17:                                               ; preds = %16, %12
  %18 = phi ptr [ %15, %12 ], [ null, %16 ]
  store ptr %18, ptr %9, align 8
  %19 = load ptr, ptr %9, align 8
  %20 = icmp ne ptr %19, null
  br i1 %20, label %21, label %26

21:                                               ; preds = %17
  %22 = load ptr, ptr %8, align 8
  %23 = load ptr, ptr %6, align 8
  %24 = getelementptr inbounds nuw %struct._frame_data, ptr %23, i32 0, i32 13
  %25 = load ptr, ptr %9, align 8
  call void @nstime_delta(ptr noundef %22, ptr noundef %24, ptr noundef %25)
  br label %28

26:                                               ; preds = %17
  %27 = load ptr, ptr %8, align 8
  call void @nstime_set_zero(ptr noundef %27)
  br label %28

28:                                               ; preds = %26, %21
  call void @llvm.lifetime.end.p0(i64 8, ptr %9) #5
  ret void
}

; Function Attrs: null_pointer_is_valid sspstrong uwtable
define internal i32 @frame_data_time_delta_compare(ptr noundef %0, ptr noundef %1, ptr noundef %2) #0 {
  %4 = alloca ptr, align 8
  %5 = alloca ptr, align 8
  %6 = alloca ptr, align 8
  %7 = alloca %struct.nstime_t, align 8
  %8 = alloca %struct.nstime_t, align 8
  store ptr %0, ptr %4, align 8
  store ptr %1, ptr %5, align 8
  store ptr %2, ptr %6, align 8
  call void @llvm.lifetime.start.p0(i64 16, ptr %7) #5
  call void @llvm.lifetime.start.p0(i64 16, ptr %8) #5
  %9 = load ptr, ptr %4, align 8
  %10 = load ptr, ptr %5, align 8
  %11 = load ptr, ptr %5, align 8
  %12 = getelementptr inbounds nuw %struct._frame_data, ptr %11, i32 0, i32 0
  %13 = load i32, ptr %12, align 8
  %14 = sub i32 %13, 1
  call void @frame_delta_abs_time(ptr noundef %9, ptr noundef %10, i32 noundef %14, ptr noundef %7)
  %15 = load ptr, ptr %4, align 8
  %16 = load ptr, ptr %6, align 8
  %17 = load ptr, ptr %6, align 8
  %18 = getelementptr inbounds nuw %struct._frame_data, ptr %17, i32 0, i32 0
  %19 = load i32, ptr %18, align 8
  %20 = sub i32 %19, 1
  call void @frame_delta_abs_time(ptr noundef %15, ptr noundef %16, i32 noundef %20, ptr noundef %8)
  %21 = load ptr, ptr %5, align 8
  %22 = getelementptr inbounds nuw %struct._frame_data, ptr %21, i32 0, i32 11
  %23 = load i16, ptr %22, align 1
  %24 = lshr i16 %23, 5
  %25 = and i16 %24, 1
  %26 = zext i16 %25 to i32
  %27 = icmp ne i32 %26, 0
  br i1 %27, label %28, label %37

28:                                               ; preds = %3
  %29 = load ptr, ptr %6, align 8
  %30 = getelementptr inbounds nuw %struct._frame_data, ptr %29, i32 0, i32 11
  %31 = load i16, ptr %30, align 1
  %32 = lshr i16 %31, 5
  %33 = and i16 %32, 1
  %34 = zext i16 %33 to i32
  %35 = icmp ne i32 %34, 0
  br i1 %35, label %37, label %36

36:                                               ; preds = %28
  br label %112

37:                                               ; preds = %28, %3
  %38 = load ptr, ptr %5, align 8
  %39 = getelementptr inbounds nuw %struct._frame_data, ptr %38, i32 0, i32 11
  %40 = load i16, ptr %39, align 1
  %41 = lshr i16 %40, 5
  %42 = and i16 %41, 1
  %43 = zext i16 %42 to i32
  %44 = icmp ne i32 %43, 0
  br i1 %44, label %54, label %45

45:                                               ; preds = %37
  %46 = load ptr, ptr %6, align 8
  %47 = getelementptr inbounds nuw %struct._frame_data, ptr %46, i32 0, i32 11
  %48 = load i16, ptr %47, align 1
  %49 = lshr i16 %48, 5
  %50 = and i16 %49, 1
  %51 = zext i16 %50 to i32
  %52 = icmp ne i32 %51, 0
  br i1 %52, label %53, label %54

53:                                               ; preds = %45
  br label %110

54:                                               ; preds = %45, %37
  %55 = getelementptr inbounds nuw %struct.nstime_t, ptr %7, i32 0, i32 0
  %56 = load i64, ptr %55, align 8
  %57 = getelementptr inbounds nuw %struct.nstime_t, ptr %8, i32 0, i32 0
  %58 = load i64, ptr %57, align 8
  %59 = icmp slt i64 %56, %58
  br i1 %59, label %60, label %61

60:                                               ; preds = %54
  br label %108

61:                                               ; preds = %54
  %62 = getelementptr inbounds nuw %struct.nstime_t, ptr %7, i32 0, i32 0
  %63 = load i64, ptr %62, align 8
  %64 = getelementptr inbounds nuw %struct.nstime_t, ptr %8, i32 0, i32 0
  %65 = load i64, ptr %64, align 8
  %66 = icmp sgt i64 %63, %65
  br i1 %66, label %67, label %68

67:                                               ; preds = %61
  br label %106

68:                                               ; preds = %61
  %69 = getelementptr inbounds nuw %struct.nstime_t, ptr %7, i32 0, i32 1
  %70 = load i32, ptr %69, align 8
  %71 = getelementptr inbounds nuw %struct.nstime_t, ptr %8, i32 0, i32 1
  %72 = load i32, ptr %71, align 8
  %73 = icmp slt i32 %70, %72
  br i1 %73, label %74, label %75

74:                                               ; preds = %68
  br label %104

75:                                               ; preds = %68
  %76 = getelementptr inbounds nuw %struct.nstime_t, ptr %7, i32 0, i32 1
  %77 = load i32, ptr %76, align 8
  %78 = getelementptr inbounds nuw %struct.nstime_t, ptr %8, i32 0, i32 1
  %79 = load i32, ptr %78, align 8
  %80 = icmp sgt i32 %77, %79
  br i1 %80, label %81, label %82

81:                                               ; preds = %75
  br label %102

82:                                               ; preds = %75
  %83 = load ptr, ptr %5, align 8
  %84 = getelementptr inbounds nuw %struct._frame_data, ptr %83, i32 0, i32 0
  %85 = load i32, ptr %84, align 8
  %86 = load ptr, ptr %6, align 8
  %87 = getelementptr inbounds nuw %struct._frame_data, ptr %86, i32 0, i32 0
  %88 = load i32, ptr %87, align 8
  %89 = icmp ult i32 %85, %88
  br i1 %89, label %90, label %91

90:                                               ; preds = %82
  br label %100

91:                                               ; preds = %82
  %92 = load ptr, ptr %5, align 8
  %93 = getelementptr inbounds nuw %struct._frame_data, ptr %92, i32 0, i32 0
  %94 = load i32, ptr %93, align 8
  %95 = load ptr, ptr %6, align 8
  %96 = getelementptr inbounds nuw %struct._frame_data, ptr %95, i32 0, i32 0
  %97 = load i32, ptr %96, align 8
  %98 = icmp ugt i32 %94, %97
  %99 = select i1 %98, i32 1, i32 0
  br label %100

100:                                              ; preds = %91, %90
  %101 = phi i32 [ -1, %90 ], [ %99, %91 ]
  br label %102

102:                                              ; preds = %100, %81
  %103 = phi i32 [ 1, %81 ], [ %101, %100 ]
  br label %104

104:                                              ; preds = %102, %74
  %105 = phi i32 [ -1, %74 ], [ %103, %102 ]
  br label %106

106:                                              ; preds = %104, %67
  %107 = phi i32 [ 1, %67 ], [ %105, %104 ]
  br label %108

108:                                              ; preds = %106, %60
  %109 = phi i32 [ -1, %60 ], [ %107, %106 ]
  br label %110

110:                                              ; preds = %108, %53
  %111 = phi i32 [ 1, %53 ], [ %109, %108 ]
  br label %112

112:                                              ; preds = %110, %36
  %113 = phi i32 [ -1, %36 ], [ %111, %110 ]
  call void @llvm.lifetime.end.p0(i64 16, ptr %8) #5
  call void @llvm.lifetime.end.p0(i64 16, ptr %7) #5
  ret i32 %113
}